(dp0
S'\n'
p1
I0
sS'!'
p2
I2
sS' '
p3
I1
sS'$'
p4
I3
sS"'"
p5
I5
sS'&'
p6
I4
sS'-'
p7
I7
sS','
p8
I6
sS'.'
p9
I8
sS'3'
p10
I9
sS';'
p11
I11
sS':'
p12
I10
sS'?'
p13
I12
sS'A'
p14
I13
sS'C'
p15
I15
sS'B'
p16
I14
sS'E'
p17
I17
sS'D'
p18
I16
sS'G'
p19
I19
sS'F'
p20
I18
sS'I'
p21
I21
sS'H'
p22
I20
sS'K'
p23
I23
sS'J'
p24
I22
sS'M'
p25
I25
sS'L'
p26
I24
sS'O'
p27
I27
sS'N'
p28
I26
sS'Q'
p29
I29
sS'P'
p30
I28
sS'S'
p31
I31
sS'R'
p32
I30
sS'U'
p33
I33
sS'T'
p34
I32
sS'W'
p35
I35
sS'V'
p36
I34
sS'Y'
p37
I37
sS'X'
p38
I36
sS'['
p39
I39
sS'Z'
p40
I38
sS']'
p41
I40
sS'a'
p42
I41
sS'c'
p43
I43
sS'b'
p44
I42
sS'e'
p45
I45
sS'd'
p46
I44
sS'g'
p47
I47
sS'f'
p48
I46
sS'i'
p49
I49
sS'h'
p50
I48
sS'k'
p51
I51
sS'j'
p52
I50
sS'm'
p53
I53
sS'l'
p54
I52
sS'o'
p55
I55
sS'n'
p56
I54
sS'q'
p57
I57
sS'p'
p58
I56
sS's'
p59
I59
sS'r'
p60
I58
sS'u'
p61
I61
sS't'
p62
I60
sS'w'
p63
I63
sS'v'
p64
I62
sS'y'
p65
I65
sS'x'
p66
I64
sS'z'
p67
I66
s.